target datalayout = "e-m:e-p270:32:32-p271:32:32-p272:64:64-i64:64-i128:128-f80:128-n8:16:32:64-S128"
target triple = "x86_64-pc-linux-gnu"

%struct._address = type { i32, i32, ptr, ptr }

@.str = private unnamed_addr constant [19 x i8] c"[Buffer too small]\00", align 1
@.str.41 = private unnamed_addr constant [4 x i8] c"-%d\00", align 1

; Function Attrs: null_pointer_is_valid sspstrong uwtable
define internal i32 @ax25_addr_to_str(ptr noundef %0, ptr noundef %1, i32 noundef %2) #3 {
  %4 = alloca i32, align 4
  %5 = alloca ptr, align 8
  %6 = alloca ptr, align 8
  %7 = alloca i32, align 4
  %8 = alloca ptr, align 8
  %9 = alloca i32, align 4
  %10 = alloca i32, align 4
  %11 = alloca ptr, align 8
  store ptr %0, ptr %5, align 8
  store ptr %1, ptr %6, align 8
  store i32 %2, ptr %7, align 4
  br label %12

12:                                               ; preds = %3
  %13 = load i32, ptr %7, align 4
  %14 = icmp sgt i32 10, %13
  br i1 %14, label %15, label %21

15:                                               ; preds = %12
  %16 = load ptr, ptr %6, align 8
  %17 = load i32, ptr %7, align 4
  %18 = sext i32 %17 to i64
  %19 = call i64 @g_strlcpy(ptr noundef %16, ptr noundef @.str, i64 noundef %18)
  %20 = load i32, ptr %7, align 4
  store i32 %20, ptr %4, align 4
  br label %91

21:                                               ; preds = %12
  br label %22

22:                                               ; preds = %21
  call void @llvm.lifetime.start.p0(i64 8, ptr %8) #12
  %23 = load ptr, ptr %5, align 8
  %24 = getelementptr inbounds nuw %struct._address, ptr %23, i32 0, i32 2
  %25 = load ptr, ptr %24, align 8
  store ptr %25, ptr %8, align 8
  call void @llvm.lifetime.start.p0(i64 4, ptr %9) #12
  call void @llvm.lifetime.start.p0(i64 4, ptr %10) #12
  call void @llvm.lifetime.start.p0(i64 8, ptr %11) #12
  %26 = load ptr, ptr %6, align 8
  store ptr %26, ptr %11, align 8
  store i32 0, ptr %9, align 4
  br label %27

27:                                               ; preds = %51, %22
  %28 = load i32, ptr %9, align 4
  %29 = icmp slt i32 %28, 6
  br i1 %29, label %30, label %54

30:                                               ; preds = %27
  %31 = load ptr, ptr %8, align 8
  %32 = load i32, ptr %9, align 4
  %33 = sext i32 %32 to i64
  %34 = getelementptr i8, ptr %31, i64 %33
  %35 = load i8, ptr %34, align 1
  %36 = zext i8 %35 to i32
  %37 = icmp eq i32 %36, 64
  br i1 %37, label %38, label %39

38:                                               ; preds = %30
  br label %54

39:                                               ; preds = %30
  %40 = load ptr, ptr %8, align 8
  %41 = load i32, ptr %9, align 4
  %42 = sext i32 %41 to i64
  %43 = getelementptr i8, ptr %40, i64 %42
  %44 = load i8, ptr %43, align 1
  %45 = zext i8 %44 to i32
  %46 = ashr i32 %45, 1
  %47 = trunc i32 %46 to i8
  %48 = call signext i8 @printable_char_or_period(i8 noundef signext %47)
  %49 = load ptr, ptr %11, align 8
  %50 = getelementptr i8, ptr %49, i32 1
  store ptr %50, ptr %11, align 8
  store i8 %48, ptr %49, align 1
  br label %51

51:                                               ; preds = %39
  %52 = load i32, ptr %9, align 4
  %53 = add i32 %52, 1
  store i32 %53, ptr %9, align 4
  br label %27, !llvm.loop !10

54:                                               ; preds = %38, %27
  %55 = load ptr, ptr %8, align 8
  %56 = getelementptr i8, ptr %55, i64 6
  %57 = load i8, ptr %56, align 1
  %58 = zext i8 %57 to i32
  %59 = ashr i32 %58, 1
  %60 = and i32 %59, 15
  store i32 %60, ptr %10, align 4
  %61 = load i32, ptr %10, align 4
  %62 = icmp ne i32 %61, 0
  br i1 %62, label %63, label %81

63:                                               ; preds = %54
  %64 = load ptr, ptr %11, align 8
  %65 = load i32, ptr %7, align 4
  %66 = load ptr, ptr %11, align 8
  %67 = load ptr, ptr %6, align 8
  %68 = ptrtoint ptr %66 to i64
  %69 = ptrtoint ptr %67 to i64
  %70 = sub i64 %68, %69
  %71 = trunc i64 %70 to i32
  %72 = sub i32 %65, %71
  %73 = sext i32 %72 to i64
  %74 = load ptr, ptr %11, align 8
  %75 = call i64 @llvm.objectsize.i64.p0(ptr %74, i1 false, i1 true, i1 true)
  %76 = load i32, ptr %10, align 4
  %77 = call i32 (ptr, i64, i32, i64, ptr, ...) @__snprintf_chk(ptr noundef %64, i64 noundef %73, i32 noundef 2, i64 noundef %75, ptr noundef @.str.41, i32 noundef %76)
  %78 = load ptr, ptr %11, align 8
  %79 = sext i32 %77 to i64
  %80 = getelementptr i8, ptr %78, i64 %79
  store ptr %80, ptr %11, align 8
  br label %84

81:                                               ; preds = %54
  %82 = load ptr, ptr %11, align 8
  %83 = getelementptr i8, ptr %82, i32 1
  store ptr %83, ptr %11, align 8
  store i8 0, ptr %82, align 1
  br label %84

84:                                               ; preds = %81, %63
  %85 = load ptr, ptr %11, align 8
  %86 = load ptr, ptr %6, align 8
  %87 = ptrtoint ptr %85 to i64
  %88 = ptrtoint ptr %86 to i64
  %89 = sub i64 %87, %88
  %90 = trunc i64 %89 to i32
  store i32 %90, ptr %4, align 4
  call void @llvm.lifetime.end.p0(i64 8, ptr %11) #12
  call void @llvm.lifetime.end.p0(i64 4, ptr %10) #12
  call void @llvm.lifetime.end.p0(i64 4, ptr %9) #12
  call void @llvm.lifetime.end.p0(i64 8, ptr %8) #12
  br label %91

91:                                               ; preds = %84, %15
  %92 = load i32, ptr %4, align 4
  ret i32 %92
}