; Function Attrs: null_pointer_is_valid sspstrong uwtable
define internal i32 @ax25_addr_to_str(ptr noundef readonly captures(none) %0, ptr noundef %1, i32 noundef %2) #6 {
  %4 = icmp slt i32 %2, 10
  br i1 %4, label %5, label %8

5:                                                ; preds = %3
  %6 = sext i32 %2 to i64
  %7 = tail call i64 @g_strlcpy(ptr noundef %1, ptr noundef nonnull @.str, i64 noundef %6)
  br label %38

8:                                                ; preds = %3
  %9 = getelementptr inbounds nuw i8, ptr %0, i64 8
  %10 = load ptr, ptr %9, align 8
  br label %11

11:                                               ; preds = %8, %15
  %indvars.iv = phi i64 [ 0, %8 ], [ %indvars.iv.next, %15 ]
  %.033 = phi ptr [ %1, %8 ], [ %18, %15 ]
  %12 = getelementptr i8, ptr %10, i64 %indvars.iv
  %13 = load i8, ptr %12, align 1
  %14 = icmp eq i8 %13, 64
  br i1 %14, label %19, label %15

15:                                               ; preds = %11
  %16 = lshr i8 %13, 1
  %17 = tail call signext i8 @printable_char_or_period(i8 noundef signext %16)
  %18 = getelementptr i8, ptr %.033, i64 1
  store i8 %17, ptr %.033, align 1
  %indvars.iv.next = add nuw nsw i64 %indvars.iv, 1
  %exitcond.not = icmp eq i64 %indvars.iv.next, 6
  br i1 %exitcond.not, label %19, label %11, !llvm.loop !8

19:                                               ; preds = %11, %15
  %.0.lcssa = phi ptr [ %.033, %11 ], [ %18, %15 ]
  %20 = getelementptr i8, ptr %10, i64 6
  %21 = load i8, ptr %20, align 1
  %22 = lshr i8 %21, 1
  %23 = and i8 %22, 15
  %.not = icmp eq i8 %23, 0
  %.pre = ptrtoint ptr %1 to i64
  br i1 %.not, label %32, label %24

24:                                               ; preds = %19
  %25 = zext nneg i8 %23 to i32
  %26 = ptrtoint ptr %.0.lcssa to i64
  %.neg = sub i64 %.pre, %26
  %.neg31 = trunc i64 %.neg to i32
  %27 = add i32 %2, %.neg31
  %28 = sext i32 %27 to i64
  %29 = tail call i32 (ptr, i64, i32, i64, ptr, ...) @__snprintf_chk(ptr noundef %.0.lcssa, i64 noundef %28, i32 noundef 2, i64 noundef -1, ptr noundef nonnull @.str.41, i32 noundef %25)
  %30 = sext i32 %29 to i64
  %31 = getelementptr i8, ptr %.0.lcssa, i64 %30
  br label %34

32:                                               ; preds = %19
  %33 = getelementptr i8, ptr %.0.lcssa, i64 1
  store i8 0, ptr %.0.lcssa, align 1
  br label %34

34:                                               ; preds = %32, %24
  %.1 = phi ptr [ %33, %32 ], [ %31, %24 ]
  %35 = ptrtoint ptr %.1 to i64
  %36 = sub i64 %35, %.pre
  %37 = trunc i64 %36 to i32
  br label %38

38:                                               ; preds = %34, %5
  %.025 = phi i32 [ %2, %5 ], [ %37, %34 ]
  ret i32 %.025
}